target datalayout = "e-m:e-p270:32:32-p271:32:32-p272:64:64-i64:64-i128:128-f80:128-n8:16:32:64-S128"
target triple = "x86_64-pc-linux-gnu"

%union.anon = type { i32 }
%struct.BITv07_DStream_t = type { i64, i32, ptr, ptr }

@__const.MEM_isLittleEndian.one = private unnamed_addr constant %union.anon { i32 1 }, align 4

; Function Attrs: inlinehint nounwind uwtable
define internal i64 @MEM_swap64(i64 noundef %0) #2 {
  %2 = alloca i64, align 8
  store i64 %0, ptr %2, align 8, !tbaa !3
  %3 = load i64, ptr %2, align 8, !tbaa !3
  %4 = shl i64 %3, 56
  %5 = and i64 %4, -72057594037927936
  %6 = load i64, ptr %2, align 8, !tbaa !3
  %7 = shl i64 %6, 40
  %8 = and i64 %7, 71776119061217280
  %9 = or i64 %5, %8
  %10 = load i64, ptr %2, align 8, !tbaa !3
  %11 = shl i64 %10, 24
  %12 = and i64 %11, 280375465082880
  %13 = or i64 %9, %12
  %14 = load i64, ptr %2, align 8, !tbaa !3
  %15 = shl i64 %14, 8
  %16 = and i64 %15, 1095216660480
  %17 = or i64 %13, %16
  %18 = load i64, ptr %2, align 8, !tbaa !3
  %19 = lshr i64 %18, 8
  %20 = and i64 %19, 4278190080
  %21 = or i64 %17, %20
  %22 = load i64, ptr %2, align 8, !tbaa !3
  %23 = lshr i64 %22, 24
  %24 = and i64 %23, 16711680
  %25 = or i64 %21, %24
  %26 = load i64, ptr %2, align 8, !tbaa !3
  %27 = lshr i64 %26, 40
  %28 = and i64 %27, 65280
  %29 = or i64 %25, %28
  %30 = load i64, ptr %2, align 8, !tbaa !3
  %31 = lshr i64 %30, 56
  %32 = and i64 %31, 255
  %33 = or i64 %29, %32
  ret i64 %33
}

; Function Attrs: inlinehint nounwind uwtable
define internal i64 @MEM_read64(ptr noundef %0) #2 {
  %2 = alloca ptr, align 8
  %3 = alloca i64, align 8
  store ptr %0, ptr %2, align 8, !tbaa !12
  call void @llvm.lifetime.start.p0(i64 8, ptr %3) #11
  %4 = load ptr, ptr %2, align 8, !tbaa !12
  call void @llvm.memcpy.p0.p0.i64(ptr align 8 %3, ptr align 1 %4, i64 8, i1 false)
  %5 = load i64, ptr %3, align 8, !tbaa !3
  call void @llvm.lifetime.end.p0(i64 8, ptr %3) #11
  ret i64 %5
}

; Function Attrs: inlinehint nounwind uwtable
define internal i32 @MEM_swap32(i32 noundef %0) #2 {
  %2 = alloca i32, align 4
  store i32 %0, ptr %2, align 4, !tbaa !15
  %3 = load i32, ptr %2, align 4, !tbaa !15
  %4 = shl i32 %3, 24
  %5 = and i32 %4, -16777216
  %6 = load i32, ptr %2, align 4, !tbaa !15
  %7 = shl i32 %6, 8
  %8 = and i32 %7, 16711680
  %9 = or i32 %5, %8
  %10 = load i32, ptr %2, align 4, !tbaa !15
  %11 = lshr i32 %10, 8
  %12 = and i32 %11, 65280
  %13 = or i32 %9, %12
  %14 = load i32, ptr %2, align 4, !tbaa !15
  %15 = lshr i32 %14, 24
  %16 = and i32 %15, 255
  %17 = or i32 %13, %16
  ret i32 %17
}

; Function Attrs: inlinehint nounwind uwtable
define internal i32 @MEM_read32(ptr noundef %0) #2 {
  %2 = alloca ptr, align 8
  %3 = alloca i32, align 4
  store ptr %0, ptr %2, align 8, !tbaa !12
  call void @llvm.lifetime.start.p0(i64 4, ptr %3) #11
  %4 = load ptr, ptr %2, align 8, !tbaa !12
  call void @llvm.memcpy.p0.p0.i64(ptr align 4 %3, ptr align 1 %4, i64 4, i1 false)
  %5 = load i32, ptr %3, align 4, !tbaa !15
  call void @llvm.lifetime.end.p0(i64 4, ptr %3) #11
  ret i32 %5
}

; Function Attrs: inlinehint nounwind uwtable
define internal i32 @MEM_isLittleEndian() #2 {
  %1 = alloca %union.anon, align 4
  call void @llvm.lifetime.start.p0(i64 4, ptr %1) #11
  call void @llvm.memcpy.p0.p0.i64(ptr align 4 %1, ptr align 4 @__const.MEM_isLittleEndian.one, i64 4, i1 false)
  %2 = getelementptr inbounds [4 x i8], ptr %1, i64 0, i64 0
  %3 = load i8, ptr %2, align 4, !tbaa !25
  %4 = zext i8 %3 to i32
  call void @llvm.lifetime.end.p0(i64 4, ptr %1) #11
  ret i32 %4
}

; Function Attrs: inlinehint nounwind uwtable
define internal i64 @MEM_readLE64(ptr noundef %0) #2 {
  %2 = alloca i64, align 8
  %3 = alloca ptr, align 8
  store ptr %0, ptr %3, align 8, !tbaa !12
  %4 = call i32 @MEM_isLittleEndian()
  %5 = icmp ne i32 %4, 0
  br i1 %5, label %6, label %9

6:                                                ; preds = %1
  %7 = load ptr, ptr %3, align 8, !tbaa !12
  %8 = call i64 @MEM_read64(ptr noundef %7)
  store i64 %8, ptr %2, align 8
  br label %13

9:                                                ; preds = %1
  %10 = load ptr, ptr %3, align 8, !tbaa !12
  %11 = call i64 @MEM_read64(ptr noundef %10)
  %12 = call i64 @MEM_swap64(i64 noundef %11)
  store i64 %12, ptr %2, align 8
  br label %13

13:                                               ; preds = %9, %6
  %14 = load i64, ptr %2, align 8
  ret i64 %14
}

; Function Attrs: inlinehint nounwind uwtable
define internal i32 @MEM_readLE32(ptr noundef %0) #2 {
  %2 = alloca i32, align 4
  %3 = alloca ptr, align 8
  store ptr %0, ptr %3, align 8, !tbaa !12
  %4 = call i32 @MEM_isLittleEndian()
  %5 = icmp ne i32 %4, 0
  br i1 %5, label %6, label %9

6:                                                ; preds = %1
  %7 = load ptr, ptr %3, align 8, !tbaa !12
  %8 = call i32 @MEM_read32(ptr noundef %7)
  store i32 %8, ptr %2, align 4
  br label %13

9:                                                ; preds = %1
  %10 = load ptr, ptr %3, align 8, !tbaa !12
  %11 = call i32 @MEM_read32(ptr noundef %10)
  %12 = call i32 @MEM_swap32(i32 noundef %11)
  store i32 %12, ptr %2, align 4
  br label %13

13:                                               ; preds = %9, %6
  %14 = load i32, ptr %2, align 4
  ret i32 %14
}

; Function Attrs: inlinehint nounwind uwtable
define internal i32 @MEM_32bits() #2 {
  ret i32 0
}

; Function Attrs: inlinehint nounwind uwtable
define internal i32 @BITv07_highbit32(i32 noundef %0) #2 {
  %2 = alloca i32, align 4
  store i32 %0, ptr %2, align 4, !tbaa !15
  %3 = load i32, ptr %2, align 4, !tbaa !15
  %4 = call i32 @llvm.ctlz.i32(i32 %3, i1 true)
  %5 = xor i32 %4, 31
  ret i32 %5
}

; Function Attrs: inlinehint nounwind uwtable
define internal i64 @MEM_readLEST(ptr noundef %0) #2 {
  %2 = alloca i64, align 8
  %3 = alloca ptr, align 8
  store ptr %0, ptr %3, align 8, !tbaa !12
  %4 = call i32 @MEM_32bits()
  %5 = icmp ne i32 %4, 0
  br i1 %5, label %6, label %10

6:                                                ; preds = %1
  %7 = load ptr, ptr %3, align 8, !tbaa !12
  %8 = call i32 @MEM_readLE32(ptr noundef %7)
  %9 = zext i32 %8 to i64
  store i64 %9, ptr %2, align 8
  br label %13

10:                                               ; preds = %1
  %11 = load ptr, ptr %3, align 8, !tbaa !12
  %12 = call i64 @MEM_readLE64(ptr noundef %11)
  store i64 %12, ptr %2, align 8
  br label %13

13:                                               ; preds = %10, %6
  %14 = load i64, ptr %2, align 8
  ret i64 %14
}

; Function Attrs: inlinehint nounwind uwtable
define internal i64 @BITv07_initDStream(ptr noundef %0, ptr noundef %1, i64 noundef %2) #2 {
  %4 = alloca i64, align 8
  %5 = alloca ptr, align 8
  %6 = alloca ptr, align 8
  %7 = alloca i64, align 8
  %8 = alloca i8, align 1
  %9 = alloca i32, align 4
  %10 = alloca i8, align 1
  store ptr %0, ptr %5, align 8, !tbaa !12
  store ptr %1, ptr %6, align 8, !tbaa !12
  store i64 %2, ptr %7, align 8, !tbaa !3
  %11 = load i64, ptr %7, align 8, !tbaa !3
  %12 = icmp ult i64 %11, 1
  br i1 %12, label %13, label %15

13:                                               ; preds = %3
  %14 = load ptr, ptr %5, align 8, !tbaa !12
  call void @llvm.memset.p0.i64(ptr align 8 %14, i8 0, i64 32, i1 false)
  store i64 -72, ptr %4, align 8
  br label %175

15:                                               ; preds = %3
  %16 = load i64, ptr %7, align 8, !tbaa !3
  %17 = icmp uge i64 %16, 8
  br i1 %17, label %18, label %60

18:                                               ; preds = %15
  %19 = load ptr, ptr %6, align 8, !tbaa !12
  %20 = load ptr, ptr %5, align 8, !tbaa !12
  %21 = getelementptr inbounds nuw %struct.BITv07_DStream_t, ptr %20, i32 0, i32 3
  store ptr %19, ptr %21, align 8, !tbaa !128
  %22 = load ptr, ptr %6, align 8, !tbaa !12
  %23 = load i64, ptr %7, align 8, !tbaa !3
  %24 = getelementptr inbounds nuw i8, ptr %22, i64 %23
  %25 = getelementptr inbounds i8, ptr %24, i64 -8
  %26 = load ptr, ptr %5, align 8, !tbaa !12
  %27 = getelementptr inbounds nuw %struct.BITv07_DStream_t, ptr %26, i32 0, i32 2
  store ptr %25, ptr %27, align 8, !tbaa !130
  %28 = load ptr, ptr %5, align 8, !tbaa !12
  %29 = getelementptr inbounds nuw %struct.BITv07_DStream_t, ptr %28, i32 0, i32 2
  %30 = load ptr, ptr %29, align 8, !tbaa !130
  %31 = call i64 @MEM_readLEST(ptr noundef %30)
  %32 = load ptr, ptr %5, align 8, !tbaa !12
  %33 = getelementptr inbounds nuw %struct.BITv07_DStream_t, ptr %32, i32 0, i32 0
  store i64 %31, ptr %33, align 8, !tbaa !131
  call void @llvm.lifetime.start.p0(i64 1, ptr %8) #11
  %34 = load ptr, ptr %6, align 8, !tbaa !12
  %35 = load i64, ptr %7, align 8, !tbaa !3
  %36 = sub i64 %35, 1
  %37 = getelementptr inbounds nuw i8, ptr %34, i64 %36
  %38 = load i8, ptr %37, align 1, !tbaa !25
  store i8 %38, ptr %8, align 1, !tbaa !25
  %39 = load i8, ptr %8, align 1, !tbaa !25
  %40 = zext i8 %39 to i32
  %41 = icmp ne i32 %40, 0
  br i1 %41, label %42, label %47

42:                                               ; preds = %18
  %43 = load i8, ptr %8, align 1, !tbaa !25
  %44 = zext i8 %43 to i32
  %45 = call i32 @BITv07_highbit32(i32 noundef %44)
  %46 = sub i32 8, %45
  br label %48

47:                                               ; preds = %18
  br label %48

48:                                               ; preds = %47, %42
  %49 = phi i32 [ %46, %42 ], [ 0, %47 ]
  %50 = load ptr, ptr %5, align 8, !tbaa !12
  %51 = getelementptr inbounds nuw %struct.BITv07_DStream_t, ptr %50, i32 0, i32 1
  store i32 %49, ptr %51, align 8, !tbaa !132
  %52 = load i8, ptr %8, align 1, !tbaa !25
  %53 = zext i8 %52 to i32
  %54 = icmp eq i32 %53, 0
  br i1 %54, label %55, label %56

55:                                               ; preds = %48
  store i64 -1, ptr %4, align 8
  store i32 1, ptr %9, align 4
  br label %57

56:                                               ; preds = %48
  store i32 0, ptr %9, align 4
  br label %57

57:                                               ; preds = %56, %55
  call void @llvm.lifetime.end.p0(i64 1, ptr %8) #11
  %58 = load i32, ptr %9, align 4
  switch i32 %58, label %177 [
    i32 0, label %59
    i32 1, label %175
  ]

59:                                               ; preds = %57
  br label %173

60:                                               ; preds = %15
  %61 = load ptr, ptr %6, align 8, !tbaa !12
  %62 = load ptr, ptr %5, align 8, !tbaa !12
  %63 = getelementptr inbounds nuw %struct.BITv07_DStream_t, ptr %62, i32 0, i32 3
  store ptr %61, ptr %63, align 8, !tbaa !128
  %64 = load ptr, ptr %5, align 8, !tbaa !12
  %65 = getelementptr inbounds nuw %struct.BITv07_DStream_t, ptr %64, i32 0, i32 3
  %66 = load ptr, ptr %65, align 8, !tbaa !128
  %67 = load ptr, ptr %5, align 8, !tbaa !12
  %68 = getelementptr inbounds nuw %struct.BITv07_DStream_t, ptr %67, i32 0, i32 2
  store ptr %66, ptr %68, align 8, !tbaa !130
  %69 = load ptr, ptr %5, align 8, !tbaa !12
  %70 = getelementptr inbounds nuw %struct.BITv07_DStream_t, ptr %69, i32 0, i32 3
  %71 = load ptr, ptr %70, align 8, !tbaa !128
  %72 = load i8, ptr %71, align 1, !tbaa !25
  %73 = zext i8 %72 to i64
  %74 = load ptr, ptr %5, align 8, !tbaa !12
  %75 = getelementptr inbounds nuw %struct.BITv07_DStream_t, ptr %74, i32 0, i32 0
  store i64 %73, ptr %75, align 8, !tbaa !131
  %76 = load i64, ptr %7, align 8, !tbaa !3
  switch i64 %76, label %137 [
    i64 7, label %77
    i64 6, label %87
    i64 5, label %97
    i64 4, label %107
    i64 3, label %117
    i64 2, label %127
  ]

77:                                               ; preds = %60
  %78 = load ptr, ptr %6, align 8, !tbaa !12
  %79 = getelementptr inbounds i8, ptr %78, i64 6
  %80 = load i8, ptr %79, align 1, !tbaa !25
  %81 = zext i8 %80 to i64
  %82 = shl i64 %81, 48
  %83 = load ptr, ptr %5, align 8, !tbaa !12
  %84 = getelementptr inbounds nuw %struct.BITv07_DStream_t, ptr %83, i32 0, i32 0
  %85 = load i64, ptr %84, align 8, !tbaa !131
  %86 = add i64 %85, %82
  store i64 %86, ptr %84, align 8, !tbaa !131
  br label %87

87:                                               ; preds = %60, %77
  %88 = load ptr, ptr %6, align 8, !tbaa !12
  %89 = getelementptr inbounds i8, ptr %88, i64 5
  %90 = load i8, ptr %89, align 1, !tbaa !25
  %91 = zext i8 %90 to i64
  %92 = shl i64 %91, 40
  %93 = load ptr, ptr %5, align 8, !tbaa !12
  %94 = getelementptr inbounds nuw %struct.BITv07_DStream_t, ptr %93, i32 0, i32 0
  %95 = load i64, ptr %94, align 8, !tbaa !131
  %96 = add i64 %95, %92
  store i64 %96, ptr %94, align 8, !tbaa !131
  br label %97

97:                                               ; preds = %60, %87
  %98 = load ptr, ptr %6, align 8, !tbaa !12
  %99 = getelementptr inbounds i8, ptr %98, i64 4
  %100 = load i8, ptr %99, align 1, !tbaa !25
  %101 = zext i8 %100 to i64
  %102 = shl i64 %101, 32
  %103 = load ptr, ptr %5, align 8, !tbaa !12
  %104 = getelementptr inbounds nuw %struct.BITv07_DStream_t, ptr %103, i32 0, i32 0
  %105 = load i64, ptr %104, align 8, !tbaa !131
  %106 = add i64 %105, %102
  store i64 %106, ptr %104, align 8, !tbaa !131
  br label %107

107:                                              ; preds = %60, %97
  %108 = load ptr, ptr %6, align 8, !tbaa !12
  %109 = getelementptr inbounds i8, ptr %108, i64 3
  %110 = load i8, ptr %109, align 1, !tbaa !25
  %111 = zext i8 %110 to i64
  %112 = shl i64 %111, 24
  %113 = load ptr, ptr %5, align 8, !tbaa !12
  %114 = getelementptr inbounds nuw %struct.BITv07_DStream_t, ptr %113, i32 0, i32 0
  %115 = load i64, ptr %114, align 8, !tbaa !131
  %116 = add i64 %115, %112
  store i64 %116, ptr %114, align 8, !tbaa !131
  br label %117

117:                                              ; preds = %60, %107
  %118 = load ptr, ptr %6, align 8, !tbaa !12
  %119 = getelementptr inbounds i8, ptr %118, i64 2
  %120 = load i8, ptr %119, align 1, !tbaa !25
  %121 = zext i8 %120 to i64
  %122 = shl i64 %121, 16
  %123 = load ptr, ptr %5, align 8, !tbaa !12
  %124 = getelementptr inbounds nuw %struct.BITv07_DStream_t, ptr %123, i32 0, i32 0
  %125 = load i64, ptr %124, align 8, !tbaa !131
  %126 = add i64 %125, %122
  store i64 %126, ptr %124, align 8, !tbaa !131
  br label %127

127:                                              ; preds = %60, %117
  %128 = load ptr, ptr %6, align 8, !tbaa !12
  %129 = getelementptr inbounds i8, ptr %128, i64 1
  %130 = load i8, ptr %129, align 1, !tbaa !25
  %131 = zext i8 %130 to i64
  %132 = shl i64 %131, 8
  %133 = load ptr, ptr %5, align 8, !tbaa !12
  %134 = getelementptr inbounds nuw %struct.BITv07_DStream_t, ptr %133, i32 0, i32 0
  %135 = load i64, ptr %134, align 8, !tbaa !131
  %136 = add i64 %135, %132
  store i64 %136, ptr %134, align 8, !tbaa !131
  br label %137

137:                                              ; preds = %60, %127
  br label %138

138:                                              ; preds = %137
  call void @llvm.lifetime.start.p0(i64 1, ptr %10) #11
  %139 = load ptr, ptr %6, align 8, !tbaa !12
  %140 = load i64, ptr %7, align 8, !tbaa !3
  %141 = sub i64 %140, 1
  %142 = getelementptr inbounds nuw i8, ptr %139, i64 %141
  %143 = load i8, ptr %142, align 1, !tbaa !25
  store i8 %143, ptr %10, align 1, !tbaa !25
  %144 = load i8, ptr %10, align 1, !tbaa !25
  %145 = zext i8 %144 to i32
  %146 = icmp ne i32 %145, 0
  br i1 %146, label %147, label %152

147:                                              ; preds = %138
  %148 = load i8, ptr %10, align 1, !tbaa !25
  %149 = zext i8 %148 to i32
  %150 = call i32 @BITv07_highbit32(i32 noundef %149)
  %151 = sub i32 8, %150
  br label %153

152:                                              ; preds = %138
  br label %153

153:                                              ; preds = %152, %147
  %154 = phi i32 [ %151, %147 ], [ 0, %152 ]
  %155 = load ptr, ptr %5, align 8, !tbaa !12
  %156 = getelementptr inbounds nuw %struct.BITv07_DStream_t, ptr %155, i32 0, i32 1
  store i32 %154, ptr %156, align 8, !tbaa !132
  %157 = load i8, ptr %10, align 1, !tbaa !25
  %158 = zext i8 %157 to i32
  %159 = icmp eq i32 %158, 0
  br i1 %159, label %160, label %161

160:                                              ; preds = %153
  store i64 -1, ptr %4, align 8
  store i32 1, ptr %9, align 4
  br label %162

161:                                              ; preds = %153
  store i32 0, ptr %9, align 4
  br label %162

162:                                              ; preds = %161, %160
  call void @llvm.lifetime.end.p0(i64 1, ptr %10) #11
  %163 = load i32, ptr %9, align 4
  switch i32 %163, label %177 [
    i32 0, label %164
    i32 1, label %175
  ]

164:                                              ; preds = %162
  %165 = load i64, ptr %7, align 8, !tbaa !3
  %166 = sub i64 8, %165
  %167 = trunc i64 %166 to i32
  %168 = mul i32 %167, 8
  %169 = load ptr, ptr %5, align 8, !tbaa !12
  %170 = getelementptr inbounds nuw %struct.BITv07_DStream_t, ptr %169, i32 0, i32 1
  %171 = load i32, ptr %170, align 8, !tbaa !132
  %172 = add i32 %171, %168
  store i32 %172, ptr %170, align 8, !tbaa !132
  br label %173

173:                                              ; preds = %164, %59
  %174 = load i64, ptr %7, align 8, !tbaa !3
  store i64 %174, ptr %4, align 8
  br label %175

175:                                              ; preds = %173, %162, %57, %13
  %176 = load i64, ptr %4, align 8
  ret i64 %176

177:                                              ; preds = %162, %57
  unreachable
}