; Function Attrs: inlinehint mustprogress nofree norecurse nosync nounwind willreturn memory(argmem: readwrite) uwtable
define internal fastcc range(i64 1, 0) i64 @BITv07_initDStream(ptr noundef nonnull writeonly captures(none) initializes((0, 12), (16, 32)) %0, ptr noundef %1, i64 noundef %2) unnamed_addr #22 {
  %4 = icmp eq i64 %2, 0
  br i1 %4, label %5, label %6

5:                                                ; preds = %3
  tail call void @llvm.memset.p0.i64(ptr noundef nonnull align 8 dereferenceable(32) %0, i8 0, i64 32, i1 false)
  br label %81

6:                                                ; preds = %3
  %7 = icmp ugt i64 %2, 7
  %8 = getelementptr inbounds nuw i8, ptr %0, i64 24
  store ptr %1, ptr %8, align 8, !tbaa !34
  br i1 %7, label %9, label %22

9:                                                ; preds = %6
  %10 = getelementptr inbounds nuw i8, ptr %1, i64 %2
  %11 = getelementptr inbounds i8, ptr %10, i64 -8
  %12 = getelementptr inbounds nuw i8, ptr %0, i64 16
  store ptr %11, ptr %12, align 8, !tbaa !39
  %.val = load i64, ptr %11, align 1
  store i64 %.val, ptr %0, align 8, !tbaa !40
  %13 = getelementptr i8, ptr %10, i64 -1
  %14 = load i8, ptr %13, align 1, !tbaa !14
  %.not51 = icmp eq i8 %14, 0
  br i1 %.not51, label %20, label %.thread

.thread:                                          ; preds = %9
  %15 = zext i8 %14 to i32
  %16 = tail call range(i32 0, 33) i32 @llvm.ctlz.i32(i32 %15, i1 true)
  %17 = xor i32 %16, 31
  %18 = sub nuw nsw i32 8, %17
  %19 = getelementptr inbounds nuw i8, ptr %0, i64 8
  store i32 %18, ptr %19, align 8, !tbaa !41
  br label %81

20:                                               ; preds = %9
  %21 = getelementptr inbounds nuw i8, ptr %0, i64 8
  store i32 0, ptr %21, align 8, !tbaa !41
  br label %81

22:                                               ; preds = %6
  %23 = getelementptr inbounds nuw i8, ptr %0, i64 16
  store ptr %1, ptr %23, align 8, !tbaa !39
  %24 = load i8, ptr %1, align 1, !tbaa !14
  %25 = zext i8 %24 to i64
  store i64 %25, ptr %0, align 8, !tbaa !40
  switch i64 %2, label %67 [
    i64 7, label %26
    i64 6, label %32
    i64 5, label %39
    i64 4, label %46
    i64 3, label %53
    i64 2, label %60
  ]

26:                                               ; preds = %22
  %27 = getelementptr inbounds nuw i8, ptr %1, i64 6
  %28 = load i8, ptr %27, align 1, !tbaa !14
  %29 = zext i8 %28 to i64
  %30 = shl nuw nsw i64 %29, 48
  %31 = or disjoint i64 %30, %25
  store i64 %31, ptr %0, align 8, !tbaa !40
  br label %32

32:                                               ; preds = %26, %22
  %33 = phi i64 [ %31, %26 ], [ %25, %22 ]
  %34 = getelementptr inbounds nuw i8, ptr %1, i64 5
  %35 = load i8, ptr %34, align 1, !tbaa !14
  %36 = zext i8 %35 to i64
  %37 = shl nuw nsw i64 %36, 40
  %38 = add nuw nsw i64 %37, %33
  store i64 %38, ptr %0, align 8, !tbaa !40
  br label %39

39:                                               ; preds = %32, %22
  %40 = phi i64 [ %38, %32 ], [ %25, %22 ]
  %41 = getelementptr inbounds nuw i8, ptr %1, i64 4
  %42 = load i8, ptr %41, align 1, !tbaa !14
  %43 = zext i8 %42 to i64
  %44 = shl nuw nsw i64 %43, 32
  %45 = add nuw nsw i64 %44, %40
  store i64 %45, ptr %0, align 8, !tbaa !40
  br label %46

46:                                               ; preds = %39, %22
  %47 = phi i64 [ %45, %39 ], [ %25, %22 ]
  %48 = getelementptr inbounds nuw i8, ptr %1, i64 3
  %49 = load i8, ptr %48, align 1, !tbaa !14
  %50 = zext i8 %49 to i64
  %51 = shl nuw nsw i64 %50, 24
  %52 = add nuw nsw i64 %51, %47
  store i64 %52, ptr %0, align 8, !tbaa !40
  br label %53

53:                                               ; preds = %46, %22
  %54 = phi i64 [ %52, %46 ], [ %25, %22 ]
  %55 = getelementptr inbounds nuw i8, ptr %1, i64 2
  %56 = load i8, ptr %55, align 1, !tbaa !14
  %57 = zext i8 %56 to i64
  %58 = shl nuw nsw i64 %57, 16
  %59 = add nuw nsw i64 %58, %54
  store i64 %59, ptr %0, align 8, !tbaa !40
  br label %60

60:                                               ; preds = %53, %22
  %61 = phi i64 [ %59, %53 ], [ %25, %22 ]
  %62 = getelementptr inbounds nuw i8, ptr %1, i64 1
  %63 = load i8, ptr %62, align 1, !tbaa !14
  %64 = zext i8 %63 to i64
  %65 = shl nuw nsw i64 %64, 8
  %66 = add nuw nsw i64 %65, %61
  store i64 %66, ptr %0, align 8, !tbaa !40
  br label %67

67:                                               ; preds = %22, %60
  %68 = getelementptr i8, ptr %1, i64 %2
  %69 = getelementptr i8, ptr %68, i64 -1
  %70 = load i8, ptr %69, align 1, !tbaa !14
  %.not = icmp eq i8 %70, 0
  br i1 %.not, label %71, label %73

71:                                               ; preds = %67
  %72 = getelementptr inbounds nuw i8, ptr %0, i64 8
  store i32 0, ptr %72, align 8, !tbaa !41
  br label %81

73:                                               ; preds = %67
  %74 = zext i8 %70 to i32
  %75 = tail call range(i32 0, 33) i32 @llvm.ctlz.i32(i32 %74, i1 true)
  %76 = getelementptr inbounds nuw i8, ptr %0, i64 8
  %77 = trunc nuw i64 %2 to i32
  %78 = shl nuw nsw i32 %77, 3
  %79 = sub nsw i32 %75, %78
  %80 = add nsw i32 %79, 41
  store i32 %80, ptr %76, align 8, !tbaa !41
  br label %81

81:                                               ; preds = %73, %.thread, %71, %20, %5
  %.0 = phi i64 [ -72, %5 ], [ -1, %20 ], [ -1, %71 ], [ %2, %.thread ], [ %2, %73 ]
  ret i64 %.0
}